; Function Attrs: mustprogress nofree norecurse nosync nounwind willreturn memory(read, inaccessiblemem: none) uwtable
define internal noundef i64 @_ZNK9grpc_core12_GLOBAL__N_123VirtualHostListIterator4SizeEv(ptr nocapture noundef nonnull readonly align 8 dereferenceable(16) %this) unnamed_addr #21 align 2 {
entry:
  %virtual_hosts_ = getelementptr inbounds i8, ptr %this, i64 8
  %0 = load ptr, ptr %virtual_hosts_, align 8
  %_M_finish.i = getelementptr inbounds i8, ptr %0, i64 8
  %1 = load ptr, ptr %_M_finish.i, align 8
  %2 = load ptr, ptr %0, align 8
  %sub.ptr.lhs.cast.i = ptrtoint ptr %1 to i64
  %sub.ptr.rhs.cast.i = ptrtoint ptr %2 to i64
  %sub.ptr.sub.i = sub i64 %sub.ptr.lhs.cast.i, %sub.ptr.rhs.cast.i
  %sub.ptr.div.i = sdiv exact i64 %sub.ptr.sub.i, 96
  ret i64 %sub.ptr.div.i
}